target datalayout = "e-m:e-p270:32:32-p271:32:32-p272:64:64-i64:64-i128:128-f80:128-n8:16:32:64-S128"
target triple = "x86_64-pc-linux-gnu"

%"struct.duckdb::roaring::ContainerMetadataCollection" = type { %"class.duckdb::vector.73", %"class.duckdb::vector.73", %"class.duckdb::vector.73", i64, i64, i64 }
%"class.duckdb::vector.73" = type { %"class.std::vector.74" }
%"class.std::vector.74" = type { %"struct.std::_Vector_base.75" }
%"struct.std::_Vector_base.75" = type { %"struct.std::_Vector_base<unsigned char, std::allocator<unsigned char>>::_Vector_impl" }
%"struct.std::_Vector_base<unsigned char, std::allocator<unsigned char>>::_Vector_impl" = type { %"struct.std::_Vector_base<unsigned char, std::allocator<unsigned char>>::_Vector_impl_data" }
%"struct.std::_Vector_base<unsigned char, std::allocator<unsigned char>>::_Vector_impl_data" = type { ptr, ptr, ptr }
%"struct.duckdb::roaring::ContainerMetadata" = type { i8, i8, i16 }
%"struct.duckdb::roaring::ContainerMetadataCollectionScanner" = type { ptr, i64, i64, i64 }

; Function Attrs: mustprogress nounwind uwtable
define linkonce_odr void @_ZN6duckdb7roaring17ContainerMetadataC2Ev(ptr noundef nonnull align 2 dereferenceable(4) %0) unnamed_addr #2 comdat align 2 {
  %2 = alloca ptr, align 8
  store ptr %0, ptr %2, align 8, !tbaa !284
  ret void
}

; Function Attrs: mustprogress uwtable
define linkonce_odr i32 @_ZN6duckdb7roaring17ContainerMetadata14ArrayContainerEtb(i16 noundef zeroext %0, i1 noundef zeroext %1) #0 comdat align 2 {
  %3 = alloca %"struct.duckdb::roaring::ContainerMetadata", align 2
  %4 = alloca i16, align 2
  %5 = alloca i8, align 1
  store i16 %0, ptr %4, align 2, !tbaa !137
  %6 = zext i1 %1 to i8
  store i8 %6, ptr %5, align 1, !tbaa !136
  call void @_ZN6duckdb7roaring17ContainerMetadataC2Ev(ptr noundef nonnull align 2 dereferenceable(4) %3)
  %7 = getelementptr inbounds nuw %"struct.duckdb::roaring::ContainerMetadata", ptr %3, i32 0, i32 0
  store i8 1, ptr %7, align 2, !tbaa !280
  %8 = load i8, ptr %5, align 1, !tbaa !136, !range !278, !noundef !279
  %9 = trunc i8 %8 to i1
  %10 = getelementptr inbounds nuw %"struct.duckdb::roaring::ContainerMetadata", ptr %3, i32 0, i32 1
  %11 = zext i1 %9 to i8
  store i8 %11, ptr %10, align 1, !tbaa !282
  %12 = load i16, ptr %4, align 2, !tbaa !137
  %13 = getelementptr inbounds nuw %"struct.duckdb::roaring::ContainerMetadata", ptr %3, i32 0, i32 2
  store i16 %12, ptr %13, align 2, !tbaa !283
  %14 = load i32, ptr %3, align 2
  ret i32 %14
}

; Function Attrs: mustprogress uwtable
define linkonce_odr i32 @_ZN6duckdb7roaring17ContainerMetadata15BitsetContainerEt(i16 noundef zeroext %0) #0 comdat align 2 {
  %2 = alloca %"struct.duckdb::roaring::ContainerMetadata", align 2
  %3 = alloca i16, align 2
  store i16 %0, ptr %3, align 2, !tbaa !137
  call void @_ZN6duckdb7roaring17ContainerMetadataC2Ev(ptr noundef nonnull align 2 dereferenceable(4) %2)
  %4 = getelementptr inbounds nuw %"struct.duckdb::roaring::ContainerMetadata", ptr %2, i32 0, i32 0
  store i8 2, ptr %4, align 2, !tbaa !280
  %5 = getelementptr inbounds nuw %"struct.duckdb::roaring::ContainerMetadata", ptr %2, i32 0, i32 1
  store i8 1, ptr %5, align 1, !tbaa !282
  %6 = load i16, ptr %3, align 2, !tbaa !137
  %7 = getelementptr inbounds nuw %"struct.duckdb::roaring::ContainerMetadata", ptr %2, i32 0, i32 2
  store i16 %6, ptr %7, align 2, !tbaa !283
  %8 = load i32, ptr %2, align 2
  ret i32 %8
}

; Function Attrs: mustprogress uwtable
define linkonce_odr i32 @_ZN6duckdb7roaring17ContainerMetadata12RunContainerEt(i16 noundef zeroext %0) #0 comdat align 2 {
  %2 = alloca %"struct.duckdb::roaring::ContainerMetadata", align 2
  %3 = alloca i16, align 2
  store i16 %0, ptr %3, align 2, !tbaa !137
  call void @_ZN6duckdb7roaring17ContainerMetadataC2Ev(ptr noundef nonnull align 2 dereferenceable(4) %2)
  %4 = getelementptr inbounds nuw %"struct.duckdb::roaring::ContainerMetadata", ptr %2, i32 0, i32 0
  store i8 0, ptr %4, align 2, !tbaa !280
  %5 = getelementptr inbounds nuw %"struct.duckdb::roaring::ContainerMetadata", ptr %2, i32 0, i32 1
  store i8 1, ptr %5, align 1, !tbaa !282
  %6 = load i16, ptr %3, align 2, !tbaa !137
  %7 = getelementptr inbounds nuw %"struct.duckdb::roaring::ContainerMetadata", ptr %2, i32 0, i32 2
  store i16 %6, ptr %7, align 2, !tbaa !283
  %8 = load i32, ptr %2, align 2
  ret i32 %8
}

; Function Attrs: mustprogress uwtable
define i32 @_ZN6duckdb7roaring34ContainerMetadataCollectionScanner7GetNextEv(ptr noundef nonnull align 8 dereferenceable(32) %0) #0 align 2 {
  %2 = alloca %"struct.duckdb::roaring::ContainerMetadata", align 2
  %3 = alloca ptr, align 8
  %4 = alloca i8, align 1
  %5 = alloca i8, align 1
  %6 = alloca i8, align 1
  %7 = alloca i8, align 1
  %8 = alloca i32, align 4
  store ptr %0, ptr %3, align 8, !tbaa !301
  %9 = load ptr, ptr %3, align 8
  call void @llvm.lifetime.start.p0(i64 1, ptr %4) #19
  %10 = getelementptr inbounds nuw %"struct.duckdb::roaring::ContainerMetadataCollectionScanner", ptr %9, i32 0, i32 0
  %11 = load ptr, ptr %10, align 8, !tbaa !307
  %12 = getelementptr inbounds nuw %"struct.duckdb::roaring::ContainerMetadataCollection", ptr %11, i32 0, i32 0
  %13 = getelementptr inbounds nuw %"struct.duckdb::roaring::ContainerMetadataCollectionScanner", ptr %9, i32 0, i32 3
  %14 = load i64, ptr %13, align 8, !tbaa !306
  %15 = add i64 %14, 1
  store i64 %15, ptr %13, align 8, !tbaa !306
  %16 = call noundef nonnull align 1 dereferenceable(1) ptr @_ZNK6duckdb6vectorIhLb1EEixEm(ptr noundef nonnull align 8 dereferenceable(24) %12, i64 noundef %14)
  %17 = load i8, ptr %16, align 1, !tbaa !292
  store i8 %17, ptr %4, align 1, !tbaa !292
  call void @llvm.lifetime.start.p0(i64 1, ptr %5) #19
  %18 = load i8, ptr %4, align 1, !tbaa !292
  %19 = zext i8 %18 to i32
  %20 = and i32 %19, 1
  %21 = icmp eq i32 %20, 1
  %22 = zext i1 %21 to i8
  store i8 %22, ptr %5, align 1, !tbaa !136
  call void @llvm.lifetime.start.p0(i64 1, ptr %6) #19
  %23 = load i8, ptr %4, align 1, !tbaa !292
  %24 = zext i8 %23 to i32
  %25 = ashr i32 %24, 1
  %26 = and i32 %25, 1
  %27 = icmp eq i32 %26, 1
  %28 = zext i1 %27 to i8
  store i8 %28, ptr %6, align 1, !tbaa !136
  call void @llvm.lifetime.start.p0(i64 1, ptr %7) #19
  %29 = load i8, ptr %6, align 1, !tbaa !136, !range !278, !noundef !279
  %30 = trunc i8 %29 to i1
  br i1 %30, label %31, label %40

31:                                               ; preds = %1
  %32 = getelementptr inbounds nuw %"struct.duckdb::roaring::ContainerMetadataCollectionScanner", ptr %9, i32 0, i32 0
  %33 = load ptr, ptr %32, align 8, !tbaa !307
  %34 = getelementptr inbounds nuw %"struct.duckdb::roaring::ContainerMetadataCollection", ptr %33, i32 0, i32 1
  %35 = getelementptr inbounds nuw %"struct.duckdb::roaring::ContainerMetadataCollectionScanner", ptr %9, i32 0, i32 2
  %36 = load i64, ptr %35, align 8, !tbaa !305
  %37 = add i64 %36, 1
  store i64 %37, ptr %35, align 8, !tbaa !305
  %38 = call noundef nonnull align 1 dereferenceable(1) ptr @_ZNK6duckdb6vectorIhLb1EEixEm(ptr noundef nonnull align 8 dereferenceable(24) %34, i64 noundef %36)
  %39 = load i8, ptr %38, align 1, !tbaa !292
  store i8 %39, ptr %7, align 1, !tbaa !292
  br label %49

40:                                               ; preds = %1
  %41 = getelementptr inbounds nuw %"struct.duckdb::roaring::ContainerMetadataCollectionScanner", ptr %9, i32 0, i32 0
  %42 = load ptr, ptr %41, align 8, !tbaa !307
  %43 = getelementptr inbounds nuw %"struct.duckdb::roaring::ContainerMetadataCollection", ptr %42, i32 0, i32 2
  %44 = getelementptr inbounds nuw %"struct.duckdb::roaring::ContainerMetadataCollectionScanner", ptr %9, i32 0, i32 1
  %45 = load i64, ptr %44, align 8, !tbaa !303
  %46 = add i64 %45, 1
  store i64 %46, ptr %44, align 8, !tbaa !303
  %47 = call noundef nonnull align 1 dereferenceable(1) ptr @_ZNK6duckdb6vectorIhLb1EEixEm(ptr noundef nonnull align 8 dereferenceable(24) %43, i64 noundef %45)
  %48 = load i8, ptr %47, align 1, !tbaa !292
  store i8 %48, ptr %7, align 1, !tbaa !292
  br label %49

49:                                               ; preds = %40, %31
  %50 = load i8, ptr %6, align 1, !tbaa !136, !range !278, !noundef !279
  %51 = trunc i8 %50 to i1
  br i1 %51, label %52, label %56

52:                                               ; preds = %49
  %53 = load i8, ptr %7, align 1, !tbaa !292
  %54 = zext i8 %53 to i16
  %55 = call i32 @_ZN6duckdb7roaring17ContainerMetadata12RunContainerEt(i16 noundef zeroext %54)
  store i32 %55, ptr %2, align 2
  store i32 1, ptr %8, align 4
  br label %70

56:                                               ; preds = %49
  %57 = load i8, ptr %7, align 1, !tbaa !292
  %58 = zext i8 %57 to i32
  %59 = icmp eq i32 %58, 249
  br i1 %59, label %60, label %64

60:                                               ; preds = %56
  %61 = load i8, ptr %7, align 1, !tbaa !292
  %62 = zext i8 %61 to i16
  %63 = call i32 @_ZN6duckdb7roaring17ContainerMetadata15BitsetContainerEt(i16 noundef zeroext %62)
  store i32 %63, ptr %2, align 2
  store i32 1, ptr %8, align 4
  br label %70

64:                                               ; preds = %56
  %65 = load i8, ptr %7, align 1, !tbaa !292
  %66 = zext i8 %65 to i16
  %67 = load i8, ptr %5, align 1, !tbaa !136, !range !278, !noundef !279
  %68 = trunc i8 %67 to i1
  %69 = call i32 @_ZN6duckdb7roaring17ContainerMetadata14ArrayContainerEtb(i16 noundef zeroext %66, i1 noundef zeroext %68)
  store i32 %69, ptr %2, align 2
  store i32 1, ptr %8, align 4
  br label %70

70:                                               ; preds = %64, %60, %52
  call void @llvm.lifetime.end.p0(i64 1, ptr %7) #19
  call void @llvm.lifetime.end.p0(i64 1, ptr %6) #19
  call void @llvm.lifetime.end.p0(i64 1, ptr %5) #19
  call void @llvm.lifetime.end.p0(i64 1, ptr %4) #19
  %71 = load i32, ptr %2, align 2
  ret i32 %71
}