; Function Attrs: mustprogress uwtable
define range(i32 1, 16712192) i32 @_ZN6duckdb7roaring34ContainerMetadataCollectionScanner7GetNextEv(ptr noundef nonnull align 8 captures(none) dereferenceable(32) %0) local_unnamed_addr #0 align 2 {
  %2 = load ptr, ptr %0, align 8, !tbaa !305
  %3 = getelementptr inbounds nuw i8, ptr %0, i64 24
  %4 = load i64, ptr %3, align 8, !tbaa !307
  %5 = add i64 %4, 1
  store i64 %5, ptr %3, align 8, !tbaa !307
  %6 = tail call noundef nonnull align 1 dereferenceable(1) ptr @_ZNK6duckdb6vectorIhLb1EEixEm(ptr noundef nonnull align 8 dereferenceable(24) %2, i64 noundef %4)
  %7 = load i8, ptr %6, align 1, !tbaa !295
  %8 = zext i8 %7 to i32
  %9 = and i32 %8, 2
  %.not = icmp eq i32 %9, 0
  %10 = load ptr, ptr %0, align 8, !tbaa !305
  br i1 %.not, label %17, label %11

11:                                               ; preds = %1
  %12 = getelementptr inbounds nuw i8, ptr %10, i64 24
  %13 = getelementptr inbounds nuw i8, ptr %0, i64 16
  %14 = load i64, ptr %13, align 8, !tbaa !308
  %15 = add i64 %14, 1
  store i64 %15, ptr %13, align 8, !tbaa !308
  %16 = tail call noundef nonnull align 1 dereferenceable(1) ptr @_ZNK6duckdb6vectorIhLb1EEixEm(ptr noundef nonnull align 8 dereferenceable(24) %12, i64 noundef %14)
  %.0 = load i8, ptr %16, align 1, !tbaa !295
  %.sroa.3.0.insert.ext.i = zext i8 %.0 to i32
  %.sroa.3.0.insert.shift.i = shl nuw nsw i32 %.sroa.3.0.insert.ext.i, 16
  %.sroa.2.0.insert.insert.i = or disjoint i32 %.sroa.3.0.insert.shift.i, 256
  br label %26

17:                                               ; preds = %1
  %18 = getelementptr inbounds nuw i8, ptr %10, i64 48
  %19 = getelementptr inbounds nuw i8, ptr %0, i64 8
  %20 = load i64, ptr %19, align 8, !tbaa !309
  %21 = add i64 %20, 1
  store i64 %21, ptr %19, align 8, !tbaa !309
  %22 = tail call noundef nonnull align 1 dereferenceable(1) ptr @_ZNK6duckdb6vectorIhLb1EEixEm(ptr noundef nonnull align 8 dereferenceable(24) %18, i64 noundef %20)
  %.016 = load i8, ptr %22, align 1, !tbaa !295
  %23 = icmp eq i8 %.016, -7
  br i1 %23, label %26, label %24

24:                                               ; preds = %17
  %.sroa.3.0.insert.ext.i11 = zext i8 %.016 to i32
  %.sroa.3.0.insert.shift.i12 = shl nuw nsw i32 %.sroa.3.0.insert.ext.i11, 16
  %25 = shl nuw nsw i32 %8, 8
  %.sroa.2.0.insert.shift.i = and i32 %25, 256
  %.sroa.2.0.insert.insert.i13 = or disjoint i32 %.sroa.3.0.insert.shift.i12, %.sroa.2.0.insert.shift.i
  %.sroa.0.0.insert.insert.i14 = or disjoint i32 %.sroa.2.0.insert.insert.i13, 1
  br label %26

26:                                               ; preds = %17, %24, %11
  %.sroa.0.0 = phi i32 [ %.sroa.2.0.insert.insert.i, %11 ], [ %.sroa.0.0.insert.insert.i14, %24 ], [ 16318722, %17 ]
  ret i32 %.sroa.0.0
}